target datalayout = "e-m:e-p270:32:32-p271:32:32-p272:64:64-i64:64-i128:128-f80:128-n8:16:32:64-S128"
target triple = "x86_64-pc-linux-gnu"

%struct.Gia_Man_t_ = type { ptr, ptr, i32, i32, i32, i32, ptr, ptr, i32, i32, i32, ptr, ptr, %struct.Vec_Int_t_, %struct.Vec_Int_t_, i32, i32, i32, %struct.Vec_Int_t_, ptr, ptr, ptr, i32, i32, i32, i32, ptr, ptr, ptr, ptr, ptr, i32, i32, ptr, i32, ptr, ptr, ptr, ptr, ptr, ptr, ptr, ptr, ptr, ptr, ptr, ptr, ptr, ptr, ptr, ptr, ptr, ptr, %struct.Vec_Int_t_, %struct.Vec_Int_t_, ptr, ptr, ptr, ptr, ptr, ptr, ptr, ptr, ptr, ptr, ptr, ptr, ptr, ptr, ptr, ptr, ptr, ptr, ptr, ptr, ptr, i32, float, float, ptr, ptr, i32, ptr, ptr, ptr, ptr, ptr, ptr, ptr, ptr, ptr, ptr, ptr, ptr, ptr, ptr, ptr, i64, i64, ptr, ptr, i32, i32, i32, i32, i32, i32, i32, i32, i32, i32, i32, i32, ptr, ptr, ptr, ptr, ptr, ptr, ptr, ptr, i32, i32, i32, ptr, i32, i32, ptr, ptr, ptr, ptr, ptr, ptr, i32, i32, ptr, %struct.Vec_Int_t_, %struct.Vec_Int_t_, %struct.Vec_Int_t_, ptr, ptr, ptr, i32, i32, i32, i32, ptr, ptr, ptr, ptr, ptr }
%struct.Vec_Int_t_ = type { i32, i32, ptr }
%struct.Gia_Obj_t_ = type <{ i64, i32 }>

; Function Attrs: inlinehint nounwind uwtable
define internal i32 @Gia_ObjRefNumId(ptr noundef %0, i32 noundef %1) #5 {
  %3 = alloca ptr, align 8
  %4 = alloca i32, align 4
  store ptr %0, ptr %3, align 8, !tbaa !17
  store i32 %1, ptr %4, align 4, !tbaa !52
  %5 = load ptr, ptr %3, align 8, !tbaa !17
  %6 = getelementptr inbounds nuw %struct.Gia_Man_t_, ptr %5, i32 0, i32 19
  %7 = load ptr, ptr %6, align 8, !tbaa !94
  %8 = load i32, ptr %4, align 4, !tbaa !52
  %9 = sext i32 %8 to i64
  %10 = getelementptr inbounds i32, ptr %7, i64 %9
  %11 = load i32, ptr %10, align 4, !tbaa !52
  ret i32 %11
}

; Function Attrs: inlinehint nounwind uwtable
define internal i32 @Gia_ObjId(ptr noundef %0, ptr noundef %1) #5 {
  %3 = alloca ptr, align 8
  %4 = alloca ptr, align 8
  store ptr %0, ptr %3, align 8, !tbaa !17
  store ptr %1, ptr %4, align 8, !tbaa !60
  %5 = load ptr, ptr %4, align 8, !tbaa !60
  %6 = load ptr, ptr %3, align 8, !tbaa !17
  %7 = getelementptr inbounds nuw %struct.Gia_Man_t_, ptr %6, i32 0, i32 6
  %8 = load ptr, ptr %7, align 8, !tbaa !77
  %9 = ptrtoint ptr %5 to i64
  %10 = ptrtoint ptr %8 to i64
  %11 = sub i64 %9, %10
  %12 = sdiv exact i64 %11, 12
  %13 = trunc i64 %12 to i32
  ret i32 %13
}

; Function Attrs: inlinehint nounwind uwtable
define internal i32 @Gia_ObjRefNum(ptr noundef %0, ptr noundef %1) #5 {
  %3 = alloca ptr, align 8
  %4 = alloca ptr, align 8
  store ptr %0, ptr %3, align 8, !tbaa !17
  store ptr %1, ptr %4, align 8, !tbaa !60
  %5 = load ptr, ptr %3, align 8, !tbaa !17
  %6 = load ptr, ptr %3, align 8, !tbaa !17
  %7 = load ptr, ptr %4, align 8, !tbaa !60
  %8 = call i32 @Gia_ObjId(ptr noundef %6, ptr noundef %7)
  %9 = call i32 @Gia_ObjRefNumId(ptr noundef %5, i32 noundef %8)
  ret i32 %9
}

; Function Attrs: inlinehint nounwind uwtable
define internal ptr @Gia_ManObj(ptr noundef %0, i32 noundef %1) #5 {
  %3 = alloca ptr, align 8
  %4 = alloca i32, align 4
  store ptr %0, ptr %3, align 8, !tbaa !17
  store i32 %1, ptr %4, align 4, !tbaa !52
  %5 = load ptr, ptr %3, align 8, !tbaa !17
  %6 = getelementptr inbounds nuw %struct.Gia_Man_t_, ptr %5, i32 0, i32 6
  %7 = load ptr, ptr %6, align 8, !tbaa !77
  %8 = load i32, ptr %4, align 4, !tbaa !52
  %9 = sext i32 %8 to i64
  %10 = getelementptr inbounds %struct.Gia_Obj_t_, ptr %7, i64 %9
  ret ptr %10
}

; Function Attrs: nounwind uwtable
define float @Gia_ManEvaluateSwitching(ptr noundef %0) #0 {
  %2 = alloca ptr, align 8
  %3 = alloca ptr, align 8
  %4 = alloca float, align 4
  %5 = alloca i32, align 4
  store ptr %0, ptr %2, align 8, !tbaa !17
  call void @llvm.lifetime.start.p0(i64 8, ptr %3) #11
  call void @llvm.lifetime.start.p0(i64 4, ptr %4) #11
  store float 0.000000e+00, ptr %4, align 4, !tbaa !61
  call void @llvm.lifetime.start.p0(i64 4, ptr %5) #11
  %6 = load ptr, ptr %2, align 8, !tbaa !17
  %7 = getelementptr inbounds nuw %struct.Gia_Man_t_, ptr %6, i32 0, i32 19
  %8 = load ptr, ptr %7, align 8, !tbaa !94
  %9 = icmp ne ptr %8, null
  br i1 %9, label %10, label %16

10:                                               ; preds = %1
  %11 = load ptr, ptr %2, align 8, !tbaa !17
  %12 = getelementptr inbounds nuw %struct.Gia_Man_t_, ptr %11, i32 0, i32 19
  %13 = load ptr, ptr %12, align 8, !tbaa !94
  call void @free(ptr noundef %13) #11
  %14 = load ptr, ptr %2, align 8, !tbaa !17
  %15 = getelementptr inbounds nuw %struct.Gia_Man_t_, ptr %14, i32 0, i32 19
  store ptr null, ptr %15, align 8, !tbaa !94
  br label %17

16:                                               ; preds = %1
  br label %17

17:                                               ; preds = %16, %10
  %18 = load ptr, ptr %2, align 8, !tbaa !17
  call void @Gia_ManCreateRefs(ptr noundef %18)
  store i32 0, ptr %5, align 4, !tbaa !52
  br label %19

19:                                               ; preds = %50, %17
  %20 = load i32, ptr %5, align 4, !tbaa !52
  %21 = load ptr, ptr %2, align 8, !tbaa !17
  %22 = getelementptr inbounds nuw %struct.Gia_Man_t_, ptr %21, i32 0, i32 4
  %23 = load i32, ptr %22, align 8, !tbaa !51
  %24 = icmp slt i32 %20, %23
  br i1 %24, label %25, label %30

25:                                               ; preds = %19
  %26 = load ptr, ptr %2, align 8, !tbaa !17
  %27 = load i32, ptr %5, align 4, !tbaa !52
  %28 = call ptr @Gia_ManObj(ptr noundef %26, i32 noundef %27)
  store ptr %28, ptr %3, align 8, !tbaa !60
  %29 = icmp ne ptr %28, null
  br label %30

30:                                               ; preds = %25, %19
  %31 = phi i1 [ false, %19 ], [ %29, %25 ]
  br i1 %31, label %32, label %53

32:                                               ; preds = %30
  %33 = load ptr, ptr %2, align 8, !tbaa !17
  %34 = load ptr, ptr %3, align 8, !tbaa !60
  %35 = call i32 @Gia_ObjRefNum(ptr noundef %33, ptr noundef %34)
  %36 = sitofp i32 %35 to float
  %37 = load ptr, ptr %2, align 8, !tbaa !17
  %38 = getelementptr inbounds nuw %struct.Gia_Man_t_, ptr %37, i32 0, i32 66
  %39 = load ptr, ptr %38, align 8, !tbaa !95
  %40 = load i32, ptr %5, align 4, !tbaa !52
  %41 = sext i32 %40 to i64
  %42 = getelementptr inbounds i8, ptr %39, i64 %41
  %43 = load i8, ptr %42, align 1, !tbaa !87
  %44 = zext i8 %43 to i32
  %45 = sitofp i32 %44 to float
  %46 = fmul float %36, %45
  %47 = fdiv float %46, 2.550000e+02
  %48 = load float, ptr %4, align 4, !tbaa !61
  %49 = fadd float %48, %47
  store float %49, ptr %4, align 4, !tbaa !61
  br label %50

50:                                               ; preds = %32
  %51 = load i32, ptr %5, align 4, !tbaa !52
  %52 = add nsw i32 %51, 1
  store i32 %52, ptr %5, align 4, !tbaa !52
  br label %19, !llvm.loop !96

53:                                               ; preds = %30
  %54 = load float, ptr %4, align 4, !tbaa !61
  call void @llvm.lifetime.end.p0(i64 4, ptr %5) #11
  call void @llvm.lifetime.end.p0(i64 4, ptr %4) #11
  call void @llvm.lifetime.end.p0(i64 8, ptr %3) #11
  ret float %54
}