; Function Attrs: nounwind uwtable
define float @Gia_ManEvaluateSwitching(ptr noundef %0) local_unnamed_addr #2 {
  %2 = getelementptr inbounds nuw i8, ptr %0, i64 144
  %3 = load ptr, ptr %2, align 8, !tbaa !108
  %.not = icmp eq ptr %3, null
  br i1 %.not, label %5, label %4

4:                                                ; preds = %1
  tail call void @free(ptr noundef nonnull %3) #17
  store ptr null, ptr %2, align 8, !tbaa !108
  br label %5

5:                                                ; preds = %1, %4
  tail call void @Gia_ManCreateRefs(ptr noundef nonnull %0) #17
  %6 = getelementptr inbounds nuw i8, ptr %0, i64 24
  %7 = load i32, ptr %6, align 8, !tbaa !47
  %8 = icmp sgt i32 %7, 0
  br i1 %8, label %.lr.ph, label %.critedge

.lr.ph:                                           ; preds = %5
  %9 = getelementptr i8, ptr %0, i64 32
  %.val = load ptr, ptr %9, align 8, !tbaa !59
  %.not17 = icmp eq ptr %.val, null
  br i1 %.not17, label %.critedge, label %.lr.ph.split

.lr.ph.split:                                     ; preds = %.lr.ph
  %10 = getelementptr inbounds nuw i8, ptr %0, i64 512
  %.val19 = load ptr, ptr %2, align 8, !tbaa !108
  %11 = load ptr, ptr %10, align 8, !tbaa !109
  %wide.trip.count = zext nneg i32 %7 to i64
  br label %12

12:                                               ; preds = %.lr.ph.split, %12
  %indvars.iv = phi i64 [ 0, %.lr.ph.split ], [ %indvars.iv.next, %12 ]
  %.01420 = phi float [ 0.000000e+00, %.lr.ph.split ], [ %21, %12 ]
  %sext.i = shl nuw nsw i64 %indvars.iv, 2
  %13 = getelementptr inbounds nuw i8, ptr %.val19, i64 %sext.i
  %14 = load i32, ptr %13, align 4, !tbaa !53
  %15 = sitofp i32 %14 to float
  %16 = getelementptr inbounds nuw i8, ptr %11, i64 %indvars.iv
  %17 = load i8, ptr %16, align 1, !tbaa !106
  %18 = uitofp i8 %17 to float
  %19 = fmul float %15, %18
  %20 = fdiv float %19, 2.550000e+02
  %21 = fadd float %.01420, %20
  %indvars.iv.next = add nuw nsw i64 %indvars.iv, 1
  %exitcond.not = icmp eq i64 %indvars.iv.next, %wide.trip.count
  br i1 %exitcond.not, label %.critedge, label %12, !llvm.loop !110

.critedge:                                        ; preds = %12, %.lr.ph, %5
  %.014.lcssa = phi float [ 0.000000e+00, %5 ], [ 0.000000e+00, %.lr.ph ], [ %21, %12 ]
  ret float %.014.lcssa
}